; ModuleID = '40/3157.c'
source_filename = "40/3157.c"
target datalayout = "e-m:e-p270:32:32-p271:32:32-p272:64:64-i64:64-f80:128-n8:16:32:64-S128"
target triple = "x86_64-pc-linux-gnu"

@.str = private unnamed_addr constant [4 x i8] c"%lf\00", align 1
@.str.1 = private unnamed_addr constant [14 x i8] c"Invalid input\00", align 1
@.str.2 = private unnamed_addr constant [6 x i8] c"%.4lf\00", align 1

; Function Attrs: noinline nounwind uwtable
define dso_local i32 @main() #0 {
  %1 = alloca i32, align 4
  %2 = alloca double, align 8
  %3 = alloca double, align 8
  %4 = alloca double, align 8
  %5 = alloca double, align 8
  %6 = alloca double, align 8
  %7 = alloca double, align 8
  %8 = alloca double, align 8
  %9 = alloca double, align 8
  %10 = alloca double, align 8
  %11 = alloca double, align 8
  store i32 0, i32* %1, align 4
  store double 0x400921FB4D12D84A, double* %11, align 8
  %12 = call i32 (i8*, ...) @__isoc99_scanf(i8* getelementptr inbounds ([4 x i8], [4 x i8]* @.str, i64 0, i64 0), double* %2)
  %13 = call i32 (i8*, ...) @__isoc99_scanf(i8* getelementptr inbounds ([4 x i8], [4 x i8]* @.str, i64 0, i64 0), double* %3)
  %14 = call i32 (i8*, ...) @__isoc99_scanf(i8* getelementptr inbounds ([4 x i8], [4 x i8]* @.str, i64 0, i64 0), double* %4)
  %15 = call i32 (i8*, ...) @__isoc99_scanf(i8* getelementptr inbounds ([4 x i8], [4 x i8]* @.str, i64 0, i64 0), double* %5)
  %16 = call i32 (i8*, ...) @__isoc99_scanf(i8* getelementptr inbounds ([4 x i8], [4 x i8]* @.str, i64 0, i64 0), double* %7)
  %17 = load double, double* %7, align 8
  %18 = load double, double* %11, align 8
  %19 = fmul double %17, %18
  %20 = fdiv double %19, 3.600000e+02
  store double %20, double* %7, align 8
  %21 = load double, double* %2, align 8
  %22 = load double, double* %3, align 8
  %23 = fadd double %21, %22
  %24 = load double, double* %4, align 8
  %25 = fadd double %23, %24
  %26 = load double, double* %5, align 8
  %27 = fadd double %25, %26
  %28 = fdiv double %27, 2.000000e+00
  store double %28, double* %6, align 8
  %29 = load double, double* %6, align 8
  %30 = load double, double* %2, align 8
  %31 = fsub double %29, %30
  %32 = load double, double* %6, align 8
  %33 = load double, double* %3, align 8
  %34 = fsub double %32, %33
  %35 = fmul double %31, %34
  %36 = load double, double* %6, align 8
  %37 = load double, double* %4, align 8
  %38 = fsub double %36, %37
  %39 = fmul double %35, %38
  %40 = load double, double* %6, align 8
  %41 = load double, double* %5, align 8
  %42 = fsub double %40, %41
  %43 = fmul double %39, %42
  store double %43, double* %8, align 8
  %44 = load double, double* %8, align 8
  %45 = load double, double* %2, align 8
  %46 = load double, double* %3, align 8
  %47 = fmul double %45, %46
  %48 = load double, double* %4, align 8
  %49 = fmul double %47, %48
  %50 = load double, double* %5, align 8
  %51 = fmul double %49, %50
  %52 = load double, double* %7, align 8
  %53 = call double @cos(double %52) #3
  %54 = fmul double %51, %53
  %55 = load double, double* %7, align 8
  %56 = call double @cos(double %55) #3
  %57 = fmul double %54, %56
  %58 = fsub double %44, %57
  store double %58, double* %10, align 8
  %59 = load double, double* %10, align 8
  %60 = fcmp olt double %59, 0.000000e+00
  br i1 %60, label %61, label %63

61:                                               ; preds = %0
  %62 = call i32 (i8*, ...) @printf(i8* getelementptr inbounds ([14 x i8], [14 x i8]* @.str.1, i64 0, i64 0))
  br label %68

63:                                               ; preds = %0
  %64 = load double, double* %10, align 8
  %65 = call double @sqrt(double %64) #3
  store double %65, double* %9, align 8
  %66 = load double, double* %9, align 8
  %67 = call i32 (i8*, ...) @printf(i8* getelementptr inbounds ([6 x i8], [6 x i8]* @.str.2, i64 0, i64 0), double %66)
  br label %68

68:                                               ; preds = %63, %61
  ret i32 0
}

declare dso_local i32 @__isoc99_scanf(i8*, ...) #1

; Function Attrs: nounwind
declare dso_local double @cos(double) #2

declare dso_local i32 @printf(i8*, ...) #1

; Function Attrs: nounwind
declare dso_local double @sqrt(double) #2


!llvm.module.flags = !{!0}
!llvm.ident = !{!1}

!0 = !{i32 1, !"wchar_size", i32 4}
!1 = !{!"clang version 10.0.0-4ubuntu1 "}
